target datalayout = "e-m:e-p270:32:32-p271:32:32-p272:64:64-i64:64-i128:128-f80:128-n8:16:32:64-S128"
target triple = "x86_64-pc-linux-gnu"

%struct.stat = type { i64, i64, i64, i32, i32, i32, i32, i64, i64, i64, i64, %struct.timespec, %struct.timespec, %struct.timespec, [3 x i64] }
%struct.timespec = type { i64, i64 }
%struct.bbsink = type { ptr, ptr, i64, ptr, ptr }
%struct.bbsink_ops = type { ptr, ptr, ptr, ptr, ptr, ptr, ptr, ptr, ptr }

@.str.1 = private unnamed_addr constant [13 x i8] c"basebackup.c\00", align 1
@.str.108 = private unnamed_addr constant [40 x i8] c"file name too long for tar format: \22%s\22\00", align 1
@__func__._tarWriteHeader = private unnamed_addr constant [16 x i8] c"_tarWriteHeader\00", align 1
@.str.109 = private unnamed_addr constant [74 x i8] c"symbolic link target too long for tar format: file name \22%s\22, target \22%s\22\00", align 1
@.str.110 = private unnamed_addr constant [27 x i8] c"unrecognized tar error: %d\00", align 1

; Function Attrs: inlinehint nounwind uwtable
define internal void @bbsink_archive_contents(ptr noundef %0, i64 noundef %1) #4 {
  %3 = alloca ptr, align 8
  %4 = alloca i64, align 8
  store ptr %0, ptr %3, align 8
  store i64 %1, ptr %4, align 8
  %5 = load ptr, ptr %3, align 8
  %6 = getelementptr inbounds nuw %struct.bbsink, ptr %5, i32 0, i32 0
  %7 = load ptr, ptr %6, align 8
  %8 = getelementptr inbounds nuw %struct.bbsink_ops, ptr %7, i32 0, i32 2
  %9 = load ptr, ptr %8, align 8
  %10 = load ptr, ptr %3, align 8
  %11 = load i64, ptr %4, align 8
  call void %9(ptr noundef %10, i64 noundef %11)
  ret void
}

; Function Attrs: nounwind uwtable
define internal i64 @_tarWriteHeader(ptr noundef %0, ptr noundef %1, ptr noundef %2, ptr noundef %3, i1 noundef zeroext %4) #0 {
  %6 = alloca ptr, align 8
  %7 = alloca ptr, align 8
  %8 = alloca ptr, align 8
  %9 = alloca ptr, align 8
  %10 = alloca i8, align 1
  %11 = alloca i32, align 4
  store ptr %0, ptr %6, align 8
  store ptr %1, ptr %7, align 8
  store ptr %2, ptr %8, align 8
  store ptr %3, ptr %9, align 8
  %12 = zext i1 %4 to i8
  store i8 %12, ptr %10, align 1
  call void @llvm.lifetime.start.p0(i64 4, ptr %11) #13
  %13 = load i8, ptr %10, align 1, !range !4, !noundef !5
  %14 = trunc i8 %13 to i1
  br i1 %14, label %80, label %15

15:                                               ; preds = %5
  %16 = load ptr, ptr %6, align 8
  %17 = getelementptr inbounds nuw %struct.bbsink, ptr %16, i32 0, i32 1
  %18 = load ptr, ptr %17, align 8
  %19 = load ptr, ptr %7, align 8
  %20 = load ptr, ptr %8, align 8
  %21 = load ptr, ptr %9, align 8
  %22 = getelementptr inbounds nuw %struct.stat, ptr %21, i32 0, i32 8
  %23 = load i64, ptr %22, align 8
  %24 = load ptr, ptr %9, align 8
  %25 = getelementptr inbounds nuw %struct.stat, ptr %24, i32 0, i32 3
  %26 = load i32, ptr %25, align 8
  %27 = load ptr, ptr %9, align 8
  %28 = getelementptr inbounds nuw %struct.stat, ptr %27, i32 0, i32 4
  %29 = load i32, ptr %28, align 4
  %30 = load ptr, ptr %9, align 8
  %31 = getelementptr inbounds nuw %struct.stat, ptr %30, i32 0, i32 5
  %32 = load i32, ptr %31, align 8
  %33 = load ptr, ptr %9, align 8
  %34 = getelementptr inbounds nuw %struct.stat, ptr %33, i32 0, i32 12
  %35 = getelementptr inbounds nuw %struct.timespec, ptr %34, i32 0, i32 0
  %36 = load i64, ptr %35, align 8
  %37 = call i32 @tarCreateHeader(ptr noundef %18, ptr noundef %19, ptr noundef %20, i64 noundef %23, i32 noundef %26, i32 noundef %29, i32 noundef %32, i64 noundef %36)
  store i32 %37, ptr %11, align 4
  %38 = load i32, ptr %11, align 4
  switch i32 %38, label %66 [
    i32 0, label %78
    i32 1, label %39
    i32 2, label %52
  ]

39:                                               ; preds = %15
  br label %40

40:                                               ; preds = %39
  br i1 true, label %41, label %43

41:                                               ; preds = %40
  %42 = call zeroext i1 @errstart_cold(i32 noundef 21, ptr noundef null) #14
  br i1 %42, label %45, label %49

43:                                               ; preds = %40
  %44 = call zeroext i1 @errstart(i32 noundef 21, ptr noundef null)
  br i1 %44, label %45, label %49

45:                                               ; preds = %43, %41
  %46 = call i32 @errcode(i32 noundef 261)
  %47 = load ptr, ptr %7, align 8
  %48 = call i32 (ptr, ...) @errmsg(ptr noundef @.str.108, ptr noundef %47)
  call void @errfinish(ptr noundef @.str.1, i32 noundef 2052, ptr noundef @__func__._tarWriteHeader)
  br label %49

49:                                               ; preds = %45, %43, %41
  unreachable

50:                                               ; No predecessors!
  br label %51

51:                                               ; preds = %50
  br label %78

52:                                               ; preds = %15
  br label %53

53:                                               ; preds = %52
  br i1 true, label %54, label %56

54:                                               ; preds = %53
  %55 = call zeroext i1 @errstart_cold(i32 noundef 21, ptr noundef null) #14
  br i1 %55, label %58, label %63

56:                                               ; preds = %53
  %57 = call zeroext i1 @errstart(i32 noundef 21, ptr noundef null)
  br i1 %57, label %58, label %63

58:                                               ; preds = %56, %54
  %59 = call i32 @errcode(i32 noundef 261)
  %60 = load ptr, ptr %7, align 8
  %61 = load ptr, ptr %8, align 8
  %62 = call i32 (ptr, ...) @errmsg(ptr noundef @.str.109, ptr noundef %60, ptr noundef %61)
  call void @errfinish(ptr noundef @.str.1, i32 noundef 2059, ptr noundef @__func__._tarWriteHeader)
  br label %63

63:                                               ; preds = %58, %56, %54
  unreachable

64:                                               ; No predecessors!
  br label %65

65:                                               ; preds = %64
  br label %78

66:                                               ; preds = %15
  br label %67

67:                                               ; preds = %66
  br i1 true, label %68, label %70

68:                                               ; preds = %67
  %69 = call zeroext i1 @errstart_cold(i32 noundef 21, ptr noundef null) #14
  br i1 %69, label %72, label %75

70:                                               ; preds = %67
  %71 = call zeroext i1 @errstart(i32 noundef 21, ptr noundef null)
  br i1 %71, label %72, label %75

72:                                               ; preds = %70, %68
  %73 = load i32, ptr %11, align 4
  %74 = call i32 (ptr, ...) @errmsg_internal(ptr noundef @.str.110, i32 noundef %73)
  call void @errfinish(ptr noundef @.str.1, i32 noundef 2062, ptr noundef @__func__._tarWriteHeader)
  br label %75

75:                                               ; preds = %72, %70, %68
  unreachable

76:                                               ; No predecessors!
  br label %77

77:                                               ; preds = %76
  br label %78

78:                                               ; preds = %77, %65, %51, %15
  %79 = load ptr, ptr %6, align 8
  call void @bbsink_archive_contents(ptr noundef %79, i64 noundef 512)
  br label %80

80:                                               ; preds = %78, %5
  call void @llvm.lifetime.end.p0(i64 4, ptr %11) #13
  ret i64 512
}