; Function Attrs: nounwind uwtable
define internal fastcc void @_tarWriteHeader(ptr noundef %0, ptr noundef %1, ptr noundef %2, ptr noundef nonnull readonly captures(none) %3, i1 noundef zeroext %4) unnamed_addr #0 {
  br i1 %4, label %35, label %6

6:                                                ; preds = %5
  %7 = getelementptr inbounds nuw i8, ptr %0, i64 8
  %8 = load ptr, ptr %7, align 8
  %9 = getelementptr inbounds nuw i8, ptr %3, i64 48
  %10 = load i64, ptr %9, align 8
  %11 = getelementptr inbounds nuw i8, ptr %3, i64 24
  %12 = load i32, ptr %11, align 8
  %13 = getelementptr inbounds nuw i8, ptr %3, i64 28
  %14 = load i32, ptr %13, align 4
  %15 = getelementptr inbounds nuw i8, ptr %3, i64 32
  %16 = load i32, ptr %15, align 8
  %17 = getelementptr inbounds nuw i8, ptr %3, i64 88
  %18 = load i64, ptr %17, align 8
  %19 = tail call i32 @tarCreateHeader(ptr noundef %8, ptr noundef %1, ptr noundef %2, i64 noundef %10, i32 noundef %12, i32 noundef %14, i32 noundef %16, i64 noundef %18) #19
  switch i32 %19, label %28 [
    i32 0, label %31
    i32 1, label %20
    i32 2, label %24
  ]

20:                                               ; preds = %6
  %21 = tail call zeroext i1 @errstart_cold(i32 noundef 21, ptr noundef null) #20
  tail call void @llvm.assume(i1 %21)
  %22 = tail call i32 @errcode(i32 noundef 261) #19
  %23 = tail call i32 (ptr, ...) @errmsg(ptr noundef nonnull @.str.108, ptr noundef %1) #19
  tail call void @errfinish(ptr noundef nonnull @.str.1, i32 noundef 2052, ptr noundef nonnull @__func__._tarWriteHeader) #19
  unreachable

24:                                               ; preds = %6
  %25 = tail call zeroext i1 @errstart_cold(i32 noundef 21, ptr noundef null) #20
  tail call void @llvm.assume(i1 %25)
  %26 = tail call i32 @errcode(i32 noundef 261) #19
  %27 = tail call i32 (ptr, ...) @errmsg(ptr noundef nonnull @.str.109, ptr noundef %1, ptr noundef %2) #19
  tail call void @errfinish(ptr noundef nonnull @.str.1, i32 noundef 2059, ptr noundef nonnull @__func__._tarWriteHeader) #19
  unreachable

28:                                               ; preds = %6
  %29 = tail call zeroext i1 @errstart_cold(i32 noundef 21, ptr noundef null) #20
  tail call void @llvm.assume(i1 %29)
  %30 = tail call i32 (ptr, ...) @errmsg_internal(ptr noundef nonnull @.str.110, i32 noundef %19) #19
  tail call void @errfinish(ptr noundef nonnull @.str.1, i32 noundef 2062, ptr noundef nonnull @__func__._tarWriteHeader) #19
  unreachable

31:                                               ; preds = %6
  %32 = load ptr, ptr %0, align 8
  %33 = getelementptr inbounds nuw i8, ptr %32, i64 16
  %34 = load ptr, ptr %33, align 8
  tail call void %34(ptr noundef nonnull %0, i64 noundef 512) #19
  br label %35

35:                                               ; preds = %31, %5
  ret void
}